target datalayout = "e-m:e-p270:32:32-p271:32:32-p272:64:64-i64:64-i128:128-f80:128-n8:16:32:64-S128"
target triple = "x86_64-pc-linux-gnu"

%struct.SRP_VBASE_st = type { ptr, ptr, ptr, ptr, ptr }

@.str = private unnamed_addr constant [32 x i8] c"../openssl/crypto/srp/srp_vfy.c\00", align 1

; Function Attrs: inlinehint nounwind uwtable
define internal ptr @ossl_check_SRP_gN_cache_sk_type(ptr noundef %0) #3 {
  %2 = alloca ptr, align 8
  store ptr %0, ptr %2, align 8, !tbaa !30
  %3 = load ptr, ptr %2, align 8, !tbaa !30
  ret ptr %3
}

; Function Attrs: inlinehint nounwind uwtable
define internal ptr @ossl_check_SRP_user_pwd_freefunc_type(ptr noundef %0) #3 {
  %2 = alloca ptr, align 8
  store ptr %0, ptr %2, align 8, !tbaa !31
  %3 = load ptr, ptr %2, align 8, !tbaa !31
  ret ptr %3
}

; Function Attrs: inlinehint nounwind uwtable
define internal ptr @ossl_check_SRP_user_pwd_sk_type(ptr noundef %0) #3 {
  %2 = alloca ptr, align 8
  store ptr %0, ptr %2, align 8, !tbaa !29
  %3 = load ptr, ptr %2, align 8, !tbaa !29
  ret ptr %3
}

; Function Attrs: nounwind uwtable
define void @SRP_VBASE_free(ptr noundef %0) #0 {
  %2 = alloca ptr, align 8
  store ptr %0, ptr %2, align 8, !tbaa !19
  %3 = load ptr, ptr %2, align 8, !tbaa !19
  %4 = icmp ne ptr %3, null
  br i1 %4, label %6, label %5

5:                                                ; preds = %1
  br label %20

6:                                                ; preds = %1
  %7 = load ptr, ptr %2, align 8, !tbaa !19
  %8 = getelementptr inbounds nuw %struct.SRP_VBASE_st, ptr %7, i32 0, i32 0
  %9 = load ptr, ptr %8, align 8, !tbaa !21
  %10 = call ptr @ossl_check_SRP_user_pwd_sk_type(ptr noundef %9)
  %11 = call ptr @ossl_check_SRP_user_pwd_freefunc_type(ptr noundef @SRP_user_pwd_free)
  call void @OPENSSL_sk_pop_free(ptr noundef %10, ptr noundef %11)
  %12 = load ptr, ptr %2, align 8, !tbaa !19
  %13 = getelementptr inbounds nuw %struct.SRP_VBASE_st, ptr %12, i32 0, i32 1
  %14 = load ptr, ptr %13, align 8, !tbaa !25
  %15 = call ptr @ossl_check_SRP_gN_cache_sk_type(ptr noundef %14)
  call void @OPENSSL_sk_free(ptr noundef %15)
  %16 = load ptr, ptr %2, align 8, !tbaa !19
  %17 = getelementptr inbounds nuw %struct.SRP_VBASE_st, ptr %16, i32 0, i32 2
  %18 = load ptr, ptr %17, align 8, !tbaa !28
  call void @CRYPTO_free(ptr noundef %18, ptr noundef @.str, i32 noundef 308)
  %19 = load ptr, ptr %2, align 8, !tbaa !19
  call void @CRYPTO_free(ptr noundef %19, ptr noundef @.str, i32 noundef 309)
  br label %20

20:                                               ; preds = %6, %5
  ret void
}